; Function Attrs: inlinehint nounwind uwtable
define internal fastcc void @align_put_bits(ptr noundef nonnull captures(none) %0) unnamed_addr #7 {
  %2 = getelementptr inbounds nuw i8, ptr %0, i64 4
  %3 = load i32, ptr %2, align 4, !tbaa !116
  %4 = load i32, ptr %0, align 8, !tbaa !115
  %5 = icmp sgt i32 %3, 7
  br i1 %5, label %6, label %10

6:                                                ; preds = %1
  %7 = and i32 %3, 7
  %8 = shl i32 %4, %7
  %9 = and i32 %3, 2147483640
  br label %put_bits.exit

10:                                               ; preds = %1
  %11 = getelementptr inbounds nuw i8, ptr %0, i64 24
  %12 = load ptr, ptr %11, align 8, !tbaa !108
  %13 = getelementptr inbounds nuw i8, ptr %0, i64 16
  %14 = load ptr, ptr %13, align 8, !tbaa !109
  %15 = ptrtoint ptr %12 to i64
  %16 = ptrtoint ptr %14 to i64
  %17 = sub i64 %15, %16
  %18 = icmp ugt i64 %17, 3
  br i1 %18, label %19, label %24

19:                                               ; preds = %10
  %20 = shl i32 %4, %3
  %21 = tail call i32 @llvm.bswap.i32(i32 %20)
  store i32 %21, ptr %14, align 1, !tbaa !51
  %22 = load ptr, ptr %13, align 8, !tbaa !109
  %23 = getelementptr inbounds nuw i8, ptr %22, i64 4
  store ptr %23, ptr %13, align 8, !tbaa !109
  br label %25

24:                                               ; preds = %10
  tail call void (ptr, i32, ptr, ...) @av_log(ptr noundef null, i32 noundef 16, ptr noundef nonnull @.str.14) #12
  br label %25

25:                                               ; preds = %24, %19
  %reass.sub.i = and i32 %3, -8
  %26 = add i32 %reass.sub.i, 32
  br label %put_bits.exit

put_bits.exit:                                    ; preds = %6, %25
  %.026.i.i = phi i32 [ %8, %6 ], [ 0, %25 ]
  %.0.i.i = phi i32 [ %9, %6 ], [ %26, %25 ]
  store i32 %.026.i.i, ptr %0, align 8, !tbaa !115
  store i32 %.0.i.i, ptr %2, align 4, !tbaa !116
  ret void
}